
overflow:     file format elf32-i386


Disassembly of section .init:

0804837c <_init>:
 804837c:	53                   	push   ebx
 804837d:	83 ec 08             	sub    esp,0x8
 8048380:	e8 cb 00 00 00       	call   8048450 <__x86.get_pc_thunk.bx>
 8048385:	81 c3 7b 1c 00 00    	add    ebx,0x1c7b
 804838b:	8b 83 fc ff ff ff    	mov    eax,DWORD PTR [ebx-0x4]
 8048391:	85 c0                	test   eax,eax
 8048393:	74 05                	je     804839a <_init+0x1e>
 8048395:	e8 76 00 00 00       	call   8048410 <.plt.got>
 804839a:	83 c4 08             	add    esp,0x8
 804839d:	5b                   	pop    ebx
 804839e:	c3                   	ret    

Disassembly of section .plt:

080483a0 <.plt>:
 80483a0:	ff 35 04 a0 04 08    	push   DWORD PTR ds:0x804a004
 80483a6:	ff 25 08 a0 04 08    	jmp    DWORD PTR ds:0x804a008
 80483ac:	00 00                	add    BYTE PTR [eax],al
	...

080483b0 <setbuf@plt>:
 80483b0:	ff 25 0c a0 04 08    	jmp    DWORD PTR ds:0x804a00c
 80483b6:	68 00 00 00 00       	push   0x0
 80483bb:	e9 e0 ff ff ff       	jmp    80483a0 <.plt>

080483c0 <printf@plt>:
 80483c0:	ff 25 10 a0 04 08    	jmp    DWORD PTR ds:0x804a010
 80483c6:	68 08 00 00 00       	push   0x8
 80483cb:	e9 d0 ff ff ff       	jmp    80483a0 <.plt>

080483d0 <fgets@plt>:
 80483d0:	ff 25 14 a0 04 08    	jmp    DWORD PTR ds:0x804a014
 80483d6:	68 10 00 00 00       	push   0x10
 80483db:	e9 c0 ff ff ff       	jmp    80483a0 <.plt>

080483e0 <system@plt>:
 80483e0:	ff 25 18 a0 04 08    	jmp    DWORD PTR ds:0x804a018
 80483e6:	68 18 00 00 00       	push   0x18
 80483eb:	e9 b0 ff ff ff       	jmp    80483a0 <.plt>

080483f0 <__libc_start_main@plt>:
 80483f0:	ff 25 1c a0 04 08    	jmp    DWORD PTR ds:0x804a01c
 80483f6:	68 20 00 00 00       	push   0x20
 80483fb:	e9 a0 ff ff ff       	jmp    80483a0 <.plt>

08048400 <memset@plt>:
 8048400:	ff 25 20 a0 04 08    	jmp    DWORD PTR ds:0x804a020
 8048406:	68 28 00 00 00       	push   0x28
 804840b:	e9 90 ff ff ff       	jmp    80483a0 <.plt>

Disassembly of section .plt.got:

08048410 <.plt.got>:
 8048410:	ff 25 fc 9f 04 08    	jmp    DWORD PTR ds:0x8049ffc
 8048416:	66 90                	xchg   ax,ax

Disassembly of section .text:

08048420 <_start>:
 8048420:	31 ed                	xor    ebp,ebp
 8048422:	5e                   	pop    esi
 8048423:	89 e1                	mov    ecx,esp
 8048425:	83 e4 f0             	and    esp,0xfffffff0
 8048428:	50                   	push   eax
 8048429:	54                   	push   esp
 804842a:	52                   	push   edx
 804842b:	68 70 86 04 08       	push   0x8048670
 8048430:	68 10 86 04 08       	push   0x8048610
 8048435:	51                   	push   ecx
 8048436:	56                   	push   esi
 8048437:	68 40 85 04 08       	push   0x8048540
 804843c:	e8 af ff ff ff       	call   80483f0 <__libc_start_main@plt>
 8048441:	f4                   	hlt    
 8048442:	66 90                	xchg   ax,ax
 8048444:	66 90                	xchg   ax,ax
 8048446:	66 90                	xchg   ax,ax
 8048448:	66 90                	xchg   ax,ax
 804844a:	66 90                	xchg   ax,ax
 804844c:	66 90                	xchg   ax,ax
 804844e:	66 90                	xchg   ax,ax

08048450 <__x86.get_pc_thunk.bx>:
 8048450:	8b 1c 24             	mov    ebx,DWORD PTR [esp]
 8048453:	c3                   	ret    
 8048454:	66 90                	xchg   ax,ax
 8048456:	66 90                	xchg   ax,ax
 8048458:	66 90                	xchg   ax,ax
 804845a:	66 90                	xchg   ax,ax
 804845c:	66 90                	xchg   ax,ax
 804845e:	66 90                	xchg   ax,ax

08048460 <deregister_tm_clones>:
 8048460:	b8 2f a0 04 08       	mov    eax,0x804a02f
 8048465:	2d 2c a0 04 08       	sub    eax,0x804a02c
 804846a:	83 f8 06             	cmp    eax,0x6
 804846d:	76 1a                	jbe    8048489 <deregister_tm_clones+0x29>
 804846f:	b8 00 00 00 00       	mov    eax,0x0
 8048474:	85 c0                	test   eax,eax
 8048476:	74 11                	je     8048489 <deregister_tm_clones+0x29>
 8048478:	55                   	push   ebp
 8048479:	89 e5                	mov    ebp,esp
 804847b:	83 ec 14             	sub    esp,0x14
 804847e:	68 2c a0 04 08       	push   0x804a02c
 8048483:	ff d0                	call   eax
 8048485:	83 c4 10             	add    esp,0x10
 8048488:	c9                   	leave  
 8048489:	f3 c3                	repz ret 
 804848b:	90                   	nop
 804848c:	8d 74 26 00          	lea    esi,[esi+eiz*1+0x0]

08048490 <register_tm_clones>:
 8048490:	b8 2c a0 04 08       	mov    eax,0x804a02c
 8048495:	2d 2c a0 04 08       	sub    eax,0x804a02c
 804849a:	c1 f8 02             	sar    eax,0x2
 804849d:	89 c2                	mov    edx,eax
 804849f:	c1 ea 1f             	shr    edx,0x1f
 80484a2:	01 d0                	add    eax,edx
 80484a4:	d1 f8                	sar    eax,1
 80484a6:	74 1b                	je     80484c3 <register_tm_clones+0x33>
 80484a8:	ba 00 00 00 00       	mov    edx,0x0
 80484ad:	85 d2                	test   edx,edx
 80484af:	74 12                	je     80484c3 <register_tm_clones+0x33>
 80484b1:	55                   	push   ebp
 80484b2:	89 e5                	mov    ebp,esp
 80484b4:	83 ec 10             	sub    esp,0x10
 80484b7:	50                   	push   eax
 80484b8:	68 2c a0 04 08       	push   0x804a02c
 80484bd:	ff d2                	call   edx
 80484bf:	83 c4 10             	add    esp,0x10
 80484c2:	c9                   	leave  
 80484c3:	f3 c3                	repz ret 
 80484c5:	8d 74 26 00          	lea    esi,[esi+eiz*1+0x0]
 80484c9:	8d bc 27 00 00 00 00 	lea    edi,[edi+eiz*1+0x0]

080484d0 <__do_global_dtors_aux>:
 80484d0:	80 3d 48 a0 04 08 00 	cmp    BYTE PTR ds:0x804a048,0x0
 80484d7:	75 13                	jne    80484ec <__do_global_dtors_aux+0x1c>
 80484d9:	55                   	push   ebp
 80484da:	89 e5                	mov    ebp,esp
 80484dc:	83 ec 08             	sub    esp,0x8
 80484df:	e8 7c ff ff ff       	call   8048460 <deregister_tm_clones>
 80484e4:	c6 05 48 a0 04 08 01 	mov    BYTE PTR ds:0x804a048,0x1
 80484eb:	c9                   	leave  
 80484ec:	f3 c3                	repz ret 
 80484ee:	66 90                	xchg   ax,ax

080484f0 <frame_dummy>:
 80484f0:	b8 10 9f 04 08       	mov    eax,0x8049f10
 80484f5:	8b 10                	mov    edx,DWORD PTR [eax]
 80484f7:	85 d2                	test   edx,edx
 80484f9:	75 05                	jne    8048500 <frame_dummy+0x10>
 80484fb:	eb 93                	jmp    8048490 <register_tm_clones>
 80484fd:	8d 76 00             	lea    esi,[esi+0x0]
 8048500:	ba 00 00 00 00       	mov    edx,0x0
 8048505:	85 d2                	test   edx,edx
 8048507:	74 f2                	je     80484fb <frame_dummy+0xb>
 8048509:	55                   	push   ebp
 804850a:	89 e5                	mov    ebp,esp
 804850c:	83 ec 14             	sub    esp,0x14
 804850f:	50                   	push   eax
 8048510:	ff d2                	call   edx
 8048512:	83 c4 10             	add    esp,0x10
 8048515:	c9                   	leave  
 8048516:	e9 75 ff ff ff       	jmp    8048490 <register_tm_clones>

0804851b <overflow>:
 804851b:	55                   	push   ebp
 804851c:	89 e5                	mov    ebp,esp
 804851e:	83 ec 08             	sub    esp,0x8
 8048521:	a1 4c a0 04 08       	mov    eax,ds:0x804a04c
 8048526:	3d 8b ba 3f 02       	cmp    eax,0x23fba8b
 804852b:	75 10                	jne    804853d <overflow+0x22>
 804852d:	83 ec 0c             	sub    esp,0xc
 8048530:	68 90 86 04 08       	push   0x8048690
 8048535:	e8 a6 fe ff ff       	call   80483e0 <system@plt>
 804853a:	83 c4 10             	add    esp,0x10
 804853d:	90                   	nop
 804853e:	c9                   	leave  
 804853f:	c3                   	ret    

08048540 <main>:
 8048540:	8d 4c 24 04          	lea    ecx,[esp+0x4]
 8048544:	83 e4 f0             	and    esp,0xfffffff0
 8048547:	ff 71 fc             	push   DWORD PTR [ecx-0x4]
 804854a:	55                   	push   ebp
 804854b:	89 e5                	mov    ebp,esp
 804854d:	51                   	push   ecx
 804854e:	81 ec 14 02 00 00    	sub    esp,0x214
 8048554:	c7 45 f4 00 00 00 00 	mov    DWORD PTR [ebp-0xc],0x0
 804855b:	83 ec 04             	sub    esp,0x4
 804855e:	68 00 02 00 00       	push   0x200
 8048563:	6a 00                	push   0x0
 8048565:	68 60 a0 04 08       	push   0x804a060
 804856a:	e8 91 fe ff ff       	call   8048400 <memset@plt>
 804856f:	83 c4 10             	add    esp,0x10
 8048572:	83 ec 04             	sub    esp,0x4
 8048575:	68 00 02 00 00       	push   0x200
 804857a:	6a 00                	push   0x0
 804857c:	8d 85 f4 fd ff ff    	lea    eax,[ebp-0x20c]
 8048582:	50                   	push   eax
 8048583:	e8 78 fe ff ff       	call   8048400 <memset@plt>
 8048588:	83 c4 10             	add    esp,0x10
 804858b:	a1 44 a0 04 08       	mov    eax,ds:0x804a044
 8048590:	83 ec 08             	sub    esp,0x8
 8048593:	6a 00                	push   0x0
 8048595:	50                   	push   eax
 8048596:	e8 15 fe ff ff       	call   80483b0 <setbuf@plt>
 804859b:	83 c4 10             	add    esp,0x10
 804859e:	83 ec 0c             	sub    esp,0xc
 80485a1:	68 a4 86 04 08       	push   0x80486a4
 80485a6:	e8 15 fe ff ff       	call   80483c0 <printf@plt>
 80485ab:	83 c4 10             	add    esp,0x10
 80485ae:	a1 40 a0 04 08       	mov    eax,ds:0x804a040
 80485b3:	83 ec 04             	sub    esp,0x4
 80485b6:	50                   	push   eax
 80485b7:	68 00 04 00 00       	push   0x400
 80485bc:	68 60 a0 04 08       	push   0x804a060
 80485c1:	e8 0a fe ff ff       	call   80483d0 <fgets@plt>
 80485c6:	83 c4 10             	add    esp,0x10
 80485c9:	83 ec 0c             	sub    esp,0xc
 80485cc:	68 af 86 04 08       	push   0x80486af
 80485d1:	e8 ea fd ff ff       	call   80483c0 <printf@plt>
 80485d6:	83 c4 10             	add    esp,0x10
 80485d9:	a1 40 a0 04 08       	mov    eax,ds:0x804a040
 80485de:	83 ec 04             	sub    esp,0x4
 80485e1:	50                   	push   eax
 80485e2:	68 00 04 00 00       	push   0x400
 80485e7:	8d 85 f4 fd ff ff    	lea    eax,[ebp-0x20c]
 80485ed:	50                   	push   eax
 80485ee:	e8 dd fd ff ff       	call   80483d0 <fgets@plt>
 80485f3:	83 c4 10             	add    esp,0x10
 80485f6:	8b 45 f4             	mov    eax,DWORD PTR [ebp-0xc]
 80485f9:	a3 4c a0 04 08       	mov    ds:0x804a04c,eax
 80485fe:	b8 00 00 00 00       	mov    eax,0x0
 8048603:	8b 4d fc             	mov    ecx,DWORD PTR [ebp-0x4]
 8048606:	c9                   	leave  
 8048607:	8d 61 fc             	lea    esp,[ecx-0x4]
 804860a:	c3                   	ret    
 804860b:	66 90                	xchg   ax,ax
 804860d:	66 90                	xchg   ax,ax
 804860f:	90                   	nop

08048610 <__libc_csu_init>:
 8048610:	55                   	push   ebp
 8048611:	57                   	push   edi
 8048612:	56                   	push   esi
 8048613:	53                   	push   ebx
 8048614:	e8 37 fe ff ff       	call   8048450 <__x86.get_pc_thunk.bx>
 8048619:	81 c3 e7 19 00 00    	add    ebx,0x19e7
 804861f:	83 ec 0c             	sub    esp,0xc
 8048622:	8b 6c 24 20          	mov    ebp,DWORD PTR [esp+0x20]
 8048626:	8d b3 0c ff ff ff    	lea    esi,[ebx-0xf4]
 804862c:	e8 4b fd ff ff       	call   804837c <_init>
 8048631:	8d 83 08 ff ff ff    	lea    eax,[ebx-0xf8]
 8048637:	29 c6                	sub    esi,eax
 8048639:	c1 fe 02             	sar    esi,0x2
 804863c:	85 f6                	test   esi,esi
 804863e:	74 25                	je     8048665 <__libc_csu_init+0x55>
 8048640:	31 ff                	xor    edi,edi
 8048642:	8d b6 00 00 00 00    	lea    esi,[esi+0x0]
 8048648:	83 ec 04             	sub    esp,0x4
 804864b:	ff 74 24 2c          	push   DWORD PTR [esp+0x2c]
 804864f:	ff 74 24 2c          	push   DWORD PTR [esp+0x2c]
 8048653:	55                   	push   ebp
 8048654:	ff 94 bb 08 ff ff ff 	call   DWORD PTR [ebx+edi*4-0xf8]
 804865b:	83 c7 01             	add    edi,0x1
 804865e:	83 c4 10             	add    esp,0x10
 8048661:	39 f7                	cmp    edi,esi
 8048663:	75 e3                	jne    8048648 <__libc_csu_init+0x38>
 8048665:	83 c4 0c             	add    esp,0xc
 8048668:	5b                   	pop    ebx
 8048669:	5e                   	pop    esi
 804866a:	5f                   	pop    edi
 804866b:	5d                   	pop    ebp
 804866c:	c3                   	ret    
 804866d:	8d 76 00             	lea    esi,[esi+0x0]

08048670 <__libc_csu_fini>:
 8048670:	f3 c3                	repz ret 

Disassembly of section .fini:

08048674 <_fini>:
 8048674:	53                   	push   ebx
 8048675:	83 ec 08             	sub    esp,0x8
 8048678:	e8 d3 fd ff ff       	call   8048450 <__x86.get_pc_thunk.bx>
 804867d:	81 c3 83 19 00 00    	add    ebx,0x1983
 8048683:	83 c4 08             	add    esp,0x8
 8048686:	5b                   	pop    ebx
 8048687:	c3                   	ret    
