
shell:     file format elf32-i386


Disassembly of section .init:

080487a8 <_init>:
 80487a8:	53                   	push   ebx
 80487a9:	83 ec 08             	sub    esp,0x8
 80487ac:	e8 7f 01 00 00       	call   8048930 <__x86.get_pc_thunk.bx>
 80487b1:	81 c3 4f 18 00 00    	add    ebx,0x184f
 80487b7:	8b 83 fc ff ff ff    	mov    eax,DWORD PTR [ebx-0x4]
 80487bd:	85 c0                	test   eax,eax
 80487bf:	74 05                	je     80487c6 <_init+0x1e>
 80487c1:	e8 2a 01 00 00       	call   80488f0 <.plt.got>
 80487c6:	83 c4 08             	add    esp,0x8
 80487c9:	5b                   	pop    ebx
 80487ca:	c3                   	ret    

Disassembly of section .plt:

080487d0 <.plt>:
 80487d0:	ff 35 04 a0 04 08    	push   DWORD PTR ds:0x804a004
 80487d6:	ff 25 08 a0 04 08    	jmp    DWORD PTR ds:0x804a008
 80487dc:	00 00                	add    BYTE PTR [eax],al
	...

080487e0 <setbuf@plt>:
 80487e0:	ff 25 0c a0 04 08    	jmp    DWORD PTR ds:0x804a00c
 80487e6:	68 00 00 00 00       	push   0x0
 80487eb:	e9 e0 ff ff ff       	jmp    80487d0 <.plt>

080487f0 <__cxa_atexit@plt>:
 80487f0:	ff 25 10 a0 04 08    	jmp    DWORD PTR ds:0x804a010
 80487f6:	68 08 00 00 00       	push   0x8
 80487fb:	e9 d0 ff ff ff       	jmp    80487d0 <.plt>

08048800 <system@plt>:
 8048800:	ff 25 14 a0 04 08    	jmp    DWORD PTR ds:0x804a014
 8048806:	68 10 00 00 00       	push   0x10
 804880b:	e9 c0 ff ff ff       	jmp    80487d0 <.plt>

08048810 <_ZNSt8ios_base4InitC1Ev@plt>:
 8048810:	ff 25 18 a0 04 08    	jmp    DWORD PTR ds:0x804a018
 8048816:	68 18 00 00 00       	push   0x18
 804881b:	e9 b0 ff ff ff       	jmp    80487d0 <.plt>

08048820 <__libc_start_main@plt>:
 8048820:	ff 25 1c a0 04 08    	jmp    DWORD PTR ds:0x804a01c
 8048826:	68 20 00 00 00       	push   0x20
 804882b:	e9 a0 ff ff ff       	jmp    80487d0 <.plt>

08048830 <_ZNSt8ios_base4InitD1Ev@plt>:
 8048830:	ff 25 20 a0 04 08    	jmp    DWORD PTR ds:0x804a020
 8048836:	68 28 00 00 00       	push   0x28
 804883b:	e9 90 ff ff ff       	jmp    80487d0 <.plt>

08048840 <_ZNSt7__cxx1112basic_stringIcSt11char_traitsIcESaIcEED1Ev@plt>:
 8048840:	ff 25 24 a0 04 08    	jmp    DWORD PTR ds:0x804a024
 8048846:	68 30 00 00 00       	push   0x30
 804884b:	e9 80 ff ff ff       	jmp    80487d0 <.plt>

08048850 <memcpy@plt>:
 8048850:	ff 25 28 a0 04 08    	jmp    DWORD PTR ds:0x804a028
 8048856:	68 38 00 00 00       	push   0x38
 804885b:	e9 70 ff ff ff       	jmp    80487d0 <.plt>

08048860 <_Znaj@plt>:
 8048860:	ff 25 2c a0 04 08    	jmp    DWORD PTR ds:0x804a02c
 8048866:	68 40 00 00 00       	push   0x40
 804886b:	e9 60 ff ff ff       	jmp    80487d0 <.plt>

08048870 <__stack_chk_fail@plt>:
 8048870:	ff 25 30 a0 04 08    	jmp    DWORD PTR ds:0x804a030
 8048876:	68 48 00 00 00       	push   0x48
 804887b:	e9 50 ff ff ff       	jmp    80487d0 <.plt>

08048880 <_ZNSaIcED1Ev@plt>:
 8048880:	ff 25 34 a0 04 08    	jmp    DWORD PTR ds:0x804a034
 8048886:	68 50 00 00 00       	push   0x50
 804888b:	e9 40 ff ff ff       	jmp    80487d0 <.plt>

08048890 <_ZStrsIcSt11char_traitsIcESaIcEERSt13basic_istreamIT_T0_ES7_RNSt7__cxx1112basic_stringIS4_S5_T1_EE@plt>:
 8048890:	ff 25 38 a0 04 08    	jmp    DWORD PTR ds:0x804a038
 8048896:	68 58 00 00 00       	push   0x58
 804889b:	e9 30 ff ff ff       	jmp    80487d0 <.plt>

080488a0 <_ZNKSt7__cxx1112basic_stringIcSt11char_traitsIcESaIcEE5c_strEv@plt>:
 80488a0:	ff 25 3c a0 04 08    	jmp    DWORD PTR ds:0x804a03c
 80488a6:	68 60 00 00 00       	push   0x60
 80488ab:	e9 20 ff ff ff       	jmp    80487d0 <.plt>

080488b0 <_ZNSt7__cxx1112basic_stringIcSt11char_traitsIcESaIcEEC1EPKcRKS3_@plt>:
 80488b0:	ff 25 40 a0 04 08    	jmp    DWORD PTR ds:0x804a040
 80488b6:	68 68 00 00 00       	push   0x68
 80488bb:	e9 10 ff ff ff       	jmp    80487d0 <.plt>

080488c0 <_ZNSaIcEC1Ev@plt>:
 80488c0:	ff 25 44 a0 04 08    	jmp    DWORD PTR ds:0x804a044
 80488c6:	68 70 00 00 00       	push   0x70
 80488cb:	e9 00 ff ff ff       	jmp    80487d0 <.plt>

080488d0 <__gxx_personality_v0@plt>:
 80488d0:	ff 25 48 a0 04 08    	jmp    DWORD PTR ds:0x804a048
 80488d6:	68 78 00 00 00       	push   0x78
 80488db:	e9 f0 fe ff ff       	jmp    80487d0 <.plt>

080488e0 <_Unwind_Resume@plt>:
 80488e0:	ff 25 4c a0 04 08    	jmp    DWORD PTR ds:0x804a04c
 80488e6:	68 80 00 00 00       	push   0x80
 80488eb:	e9 e0 fe ff ff       	jmp    80487d0 <.plt>

Disassembly of section .plt.got:

080488f0 <.plt.got>:
 80488f0:	ff 25 fc 9f 04 08    	jmp    DWORD PTR ds:0x8049ffc
 80488f6:	66 90                	xchg   ax,ax

Disassembly of section .text:

08048900 <_start>:
 8048900:	31 ed                	xor    ebp,ebp
 8048902:	5e                   	pop    esi
 8048903:	89 e1                	mov    ecx,esp
 8048905:	83 e4 f0             	and    esp,0xfffffff0
 8048908:	50                   	push   eax
 8048909:	54                   	push   esp
 804890a:	52                   	push   edx
 804890b:	68 f0 8b 04 08       	push   0x8048bf0
 8048910:	68 90 8b 04 08       	push   0x8048b90
 8048915:	51                   	push   ecx
 8048916:	56                   	push   esi
 8048917:	68 14 8a 04 08       	push   0x8048a14
 804891c:	e8 ff fe ff ff       	call   8048820 <__libc_start_main@plt>
 8048921:	f4                   	hlt    
 8048922:	66 90                	xchg   ax,ax
 8048924:	66 90                	xchg   ax,ax
 8048926:	66 90                	xchg   ax,ax
 8048928:	66 90                	xchg   ax,ax
 804892a:	66 90                	xchg   ax,ax
 804892c:	66 90                	xchg   ax,ax
 804892e:	66 90                	xchg   ax,ax

08048930 <__x86.get_pc_thunk.bx>:
 8048930:	8b 1c 24             	mov    ebx,DWORD PTR [esp]
 8048933:	c3                   	ret    
 8048934:	66 90                	xchg   ax,ax
 8048936:	66 90                	xchg   ax,ax
 8048938:	66 90                	xchg   ax,ax
 804893a:	66 90                	xchg   ax,ax
 804893c:	66 90                	xchg   ax,ax
 804893e:	66 90                	xchg   ax,ax

08048940 <deregister_tm_clones>:
 8048940:	b8 5b a0 04 08       	mov    eax,0x804a05b
 8048945:	2d 58 a0 04 08       	sub    eax,0x804a058
 804894a:	83 f8 06             	cmp    eax,0x6
 804894d:	76 1a                	jbe    8048969 <deregister_tm_clones+0x29>
 804894f:	b8 00 00 00 00       	mov    eax,0x0
 8048954:	85 c0                	test   eax,eax
 8048956:	74 11                	je     8048969 <deregister_tm_clones+0x29>
 8048958:	55                   	push   ebp
 8048959:	89 e5                	mov    ebp,esp
 804895b:	83 ec 14             	sub    esp,0x14
 804895e:	68 58 a0 04 08       	push   0x804a058
 8048963:	ff d0                	call   eax
 8048965:	83 c4 10             	add    esp,0x10
 8048968:	c9                   	leave  
 8048969:	f3 c3                	repz ret 
 804896b:	90                   	nop
 804896c:	8d 74 26 00          	lea    esi,[esi+eiz*1+0x0]

08048970 <register_tm_clones>:
 8048970:	b8 58 a0 04 08       	mov    eax,0x804a058
 8048975:	2d 58 a0 04 08       	sub    eax,0x804a058
 804897a:	c1 f8 02             	sar    eax,0x2
 804897d:	89 c2                	mov    edx,eax
 804897f:	c1 ea 1f             	shr    edx,0x1f
 8048982:	01 d0                	add    eax,edx
 8048984:	d1 f8                	sar    eax,1
 8048986:	74 1b                	je     80489a3 <register_tm_clones+0x33>
 8048988:	ba 00 00 00 00       	mov    edx,0x0
 804898d:	85 d2                	test   edx,edx
 804898f:	74 12                	je     80489a3 <register_tm_clones+0x33>
 8048991:	55                   	push   ebp
 8048992:	89 e5                	mov    ebp,esp
 8048994:	83 ec 10             	sub    esp,0x10
 8048997:	50                   	push   eax
 8048998:	68 58 a0 04 08       	push   0x804a058
 804899d:	ff d2                	call   edx
 804899f:	83 c4 10             	add    esp,0x10
 80489a2:	c9                   	leave  
 80489a3:	f3 c3                	repz ret 
 80489a5:	8d 74 26 00          	lea    esi,[esi+eiz*1+0x0]
 80489a9:	8d bc 27 00 00 00 00 	lea    edi,[edi+eiz*1+0x0]

080489b0 <__do_global_dtors_aux>:
 80489b0:	80 3d f4 a0 04 08 00 	cmp    BYTE PTR ds:0x804a0f4,0x0
 80489b7:	75 13                	jne    80489cc <__do_global_dtors_aux+0x1c>
 80489b9:	55                   	push   ebp
 80489ba:	89 e5                	mov    ebp,esp
 80489bc:	83 ec 08             	sub    esp,0x8
 80489bf:	e8 7c ff ff ff       	call   8048940 <deregister_tm_clones>
 80489c4:	c6 05 f4 a0 04 08 01 	mov    BYTE PTR ds:0x804a0f4,0x1
 80489cb:	c9                   	leave  
 80489cc:	f3 c3                	repz ret 
 80489ce:	66 90                	xchg   ax,ax

080489d0 <frame_dummy>:
 80489d0:	b8 00 9f 04 08       	mov    eax,0x8049f00
 80489d5:	8b 10                	mov    edx,DWORD PTR [eax]
 80489d7:	85 d2                	test   edx,edx
 80489d9:	75 05                	jne    80489e0 <frame_dummy+0x10>
 80489db:	eb 93                	jmp    8048970 <register_tm_clones>
 80489dd:	8d 76 00             	lea    esi,[esi+0x0]
 80489e0:	ba 00 00 00 00       	mov    edx,0x0
 80489e5:	85 d2                	test   edx,edx
 80489e7:	74 f2                	je     80489db <frame_dummy+0xb>
 80489e9:	55                   	push   ebp
 80489ea:	89 e5                	mov    ebp,esp
 80489ec:	83 ec 14             	sub    esp,0x14
 80489ef:	50                   	push   eax
 80489f0:	ff d2                	call   edx
 80489f2:	83 c4 10             	add    esp,0x10
 80489f5:	c9                   	leave  
 80489f6:	e9 75 ff ff ff       	jmp    8048970 <register_tm_clones>

080489fb <_Z7exploitv>:
 80489fb:	55                   	push   ebp
 80489fc:	89 e5                	mov    ebp,esp
 80489fe:	83 ec 08             	sub    esp,0x8
 8048a01:	83 ec 0c             	sub    esp,0xc
 8048a04:	68 18 8c 04 08       	push   0x8048c18
 8048a09:	e8 f2 fd ff ff       	call   8048800 <system@plt>
 8048a0e:	83 c4 10             	add    esp,0x10
 8048a11:	90                   	nop
 8048a12:	c9                   	leave  
 8048a13:	c3                   	ret    

08048a14 <main>:
 8048a14:	8d 4c 24 04          	lea    ecx,[esp+0x4]
 8048a18:	83 e4 f0             	and    esp,0xfffffff0
 8048a1b:	ff 71 fc             	push   DWORD PTR [ecx-0x4]
 8048a1e:	55                   	push   ebp
 8048a1f:	89 e5                	mov    ebp,esp
 8048a21:	53                   	push   ebx
 8048a22:	51                   	push   ecx
 8048a23:	83 ec 30             	sub    esp,0x30
 8048a26:	65 a1 14 00 00 00    	mov    eax,gs:0x14
 8048a2c:	89 45 f4             	mov    DWORD PTR [ebp-0xc],eax
 8048a2f:	31 c0                	xor    eax,eax
 8048a31:	a1 f0 a0 04 08       	mov    eax,ds:0x804a0f0
 8048a36:	83 ec 08             	sub    esp,0x8
 8048a39:	6a 00                	push   0x0
 8048a3b:	50                   	push   eax
 8048a3c:	e8 9f fd ff ff       	call   80487e0 <setbuf@plt>
 8048a41:	83 c4 10             	add    esp,0x10
 8048a44:	83 ec 0c             	sub    esp,0xc
 8048a47:	8d 45 d7             	lea    eax,[ebp-0x29]
 8048a4a:	50                   	push   eax
 8048a4b:	e8 70 fe ff ff       	call   80488c0 <_ZNSaIcEC1Ev@plt>
 8048a50:	83 c4 10             	add    esp,0x10
 8048a53:	83 ec 04             	sub    esp,0x4
 8048a56:	8d 45 d7             	lea    eax,[ebp-0x29]
 8048a59:	50                   	push   eax
 8048a5a:	68 2c 8c 04 08       	push   0x8048c2c
 8048a5f:	8d 45 dc             	lea    eax,[ebp-0x24]
 8048a62:	50                   	push   eax
 8048a63:	e8 48 fe ff ff       	call   80488b0 <_ZNSt7__cxx1112basic_stringIcSt11char_traitsIcESaIcEEC1EPKcRKS3_@plt>
 8048a68:	83 c4 10             	add    esp,0x10
 8048a6b:	83 ec 0c             	sub    esp,0xc
 8048a6e:	8d 45 d7             	lea    eax,[ebp-0x29]
 8048a71:	50                   	push   eax
 8048a72:	e8 09 fe ff ff       	call   8048880 <_ZNSaIcED1Ev@plt>
 8048a77:	83 c4 10             	add    esp,0x10
 8048a7a:	83 ec 08             	sub    esp,0x8
 8048a7d:	8d 45 dc             	lea    eax,[ebp-0x24]
 8048a80:	50                   	push   eax
 8048a81:	68 60 a0 04 08       	push   0x804a060
 8048a86:	e8 05 fe ff ff       	call   8048890 <_ZStrsIcSt11char_traitsIcESaIcEERSt13basic_istreamIT_T0_ES7_RNSt7__cxx1112basic_stringIS4_S5_T1_EE@plt>
 8048a8b:	83 c4 10             	add    esp,0x10
 8048a8e:	83 ec 0c             	sub    esp,0xc
 8048a91:	6a 06                	push   0x6
 8048a93:	e8 c8 fd ff ff       	call   8048860 <_Znaj@plt>
 8048a98:	83 c4 10             	add    esp,0x10
 8048a9b:	89 45 d8             	mov    DWORD PTR [ebp-0x28],eax
 8048a9e:	83 ec 0c             	sub    esp,0xc
 8048aa1:	8d 45 dc             	lea    eax,[ebp-0x24]
 8048aa4:	50                   	push   eax
 8048aa5:	e8 f6 fd ff ff       	call   80488a0 <_ZNKSt7__cxx1112basic_stringIcSt11char_traitsIcESaIcEE5c_strEv@plt>
 8048aaa:	83 c4 10             	add    esp,0x10
 8048aad:	83 ec 04             	sub    esp,0x4
 8048ab0:	6a 06                	push   0x6
 8048ab2:	50                   	push   eax
 8048ab3:	ff 75 d8             	push   DWORD PTR [ebp-0x28]
 8048ab6:	e8 95 fd ff ff       	call   8048850 <memcpy@plt>
 8048abb:	83 c4 10             	add    esp,0x10
 8048abe:	8b 45 d8             	mov    eax,DWORD PTR [ebp-0x28]
 8048ac1:	ff d0                	call   eax
 8048ac3:	bb 00 00 00 00       	mov    ebx,0x0
 8048ac8:	83 ec 0c             	sub    esp,0xc
 8048acb:	8d 45 dc             	lea    eax,[ebp-0x24]
 8048ace:	50                   	push   eax
 8048acf:	e8 6c fd ff ff       	call   8048840 <_ZNSt7__cxx1112basic_stringIcSt11char_traitsIcESaIcEED1Ev@plt>
 8048ad4:	83 c4 10             	add    esp,0x10
 8048ad7:	89 d8                	mov    eax,ebx
 8048ad9:	8b 55 f4             	mov    edx,DWORD PTR [ebp-0xc]
 8048adc:	65 33 15 14 00 00 00 	xor    edx,DWORD PTR gs:0x14
 8048ae3:	74 3f                	je     8048b24 <main+0x110>
 8048ae5:	eb 38                	jmp    8048b1f <main+0x10b>
 8048ae7:	89 c3                	mov    ebx,eax
 8048ae9:	83 ec 0c             	sub    esp,0xc
 8048aec:	8d 45 d7             	lea    eax,[ebp-0x29]
 8048aef:	50                   	push   eax
 8048af0:	e8 8b fd ff ff       	call   8048880 <_ZNSaIcED1Ev@plt>
 8048af5:	83 c4 10             	add    esp,0x10
 8048af8:	89 d8                	mov    eax,ebx
 8048afa:	83 ec 0c             	sub    esp,0xc
 8048afd:	50                   	push   eax
 8048afe:	e8 dd fd ff ff       	call   80488e0 <_Unwind_Resume@plt>
 8048b03:	89 c3                	mov    ebx,eax
 8048b05:	83 ec 0c             	sub    esp,0xc
 8048b08:	8d 45 dc             	lea    eax,[ebp-0x24]
 8048b0b:	50                   	push   eax
 8048b0c:	e8 2f fd ff ff       	call   8048840 <_ZNSt7__cxx1112basic_stringIcSt11char_traitsIcESaIcEED1Ev@plt>
 8048b11:	83 c4 10             	add    esp,0x10
 8048b14:	89 d8                	mov    eax,ebx
 8048b16:	83 ec 0c             	sub    esp,0xc
 8048b19:	50                   	push   eax
 8048b1a:	e8 c1 fd ff ff       	call   80488e0 <_Unwind_Resume@plt>
 8048b1f:	e8 4c fd ff ff       	call   8048870 <__stack_chk_fail@plt>
 8048b24:	8d 65 f8             	lea    esp,[ebp-0x8]
 8048b27:	59                   	pop    ecx
 8048b28:	5b                   	pop    ebx
 8048b29:	5d                   	pop    ebp
 8048b2a:	8d 61 fc             	lea    esp,[ecx-0x4]
 8048b2d:	c3                   	ret    

08048b2e <_Z41__static_initialization_and_destruction_0ii>:
 8048b2e:	55                   	push   ebp
 8048b2f:	89 e5                	mov    ebp,esp
 8048b31:	83 ec 08             	sub    esp,0x8
 8048b34:	83 7d 08 01          	cmp    DWORD PTR [ebp+0x8],0x1
 8048b38:	75 33                	jne    8048b6d <_Z41__static_initialization_and_destruction_0ii+0x3f>
 8048b3a:	81 7d 0c ff ff 00 00 	cmp    DWORD PTR [ebp+0xc],0xffff
 8048b41:	75 2a                	jne    8048b6d <_Z41__static_initialization_and_destruction_0ii+0x3f>
 8048b43:	83 ec 0c             	sub    esp,0xc
 8048b46:	68 f5 a0 04 08       	push   0x804a0f5
 8048b4b:	e8 c0 fc ff ff       	call   8048810 <_ZNSt8ios_base4InitC1Ev@plt>
 8048b50:	83 c4 10             	add    esp,0x10
 8048b53:	83 ec 04             	sub    esp,0x4
 8048b56:	68 54 a0 04 08       	push   0x804a054
 8048b5b:	68 f5 a0 04 08       	push   0x804a0f5
 8048b60:	68 30 88 04 08       	push   0x8048830
 8048b65:	e8 86 fc ff ff       	call   80487f0 <__cxa_atexit@plt>
 8048b6a:	83 c4 10             	add    esp,0x10
 8048b6d:	90                   	nop
 8048b6e:	c9                   	leave  
 8048b6f:	c3                   	ret    

08048b70 <_GLOBAL__sub_I__Z7exploitv>:
 8048b70:	55                   	push   ebp
 8048b71:	89 e5                	mov    ebp,esp
 8048b73:	83 ec 08             	sub    esp,0x8
 8048b76:	83 ec 08             	sub    esp,0x8
 8048b79:	68 ff ff 00 00       	push   0xffff
 8048b7e:	6a 01                	push   0x1
 8048b80:	e8 a9 ff ff ff       	call   8048b2e <_Z41__static_initialization_and_destruction_0ii>
 8048b85:	83 c4 10             	add    esp,0x10
 8048b88:	c9                   	leave  
 8048b89:	c3                   	ret    
 8048b8a:	66 90                	xchg   ax,ax
 8048b8c:	66 90                	xchg   ax,ax
 8048b8e:	66 90                	xchg   ax,ax

08048b90 <__libc_csu_init>:
 8048b90:	55                   	push   ebp
 8048b91:	57                   	push   edi
 8048b92:	56                   	push   esi
 8048b93:	53                   	push   ebx
 8048b94:	e8 97 fd ff ff       	call   8048930 <__x86.get_pc_thunk.bx>
 8048b99:	81 c3 67 14 00 00    	add    ebx,0x1467
 8048b9f:	83 ec 0c             	sub    esp,0xc
 8048ba2:	8b 6c 24 20          	mov    ebp,DWORD PTR [esp+0x20]
 8048ba6:	8d b3 fc fe ff ff    	lea    esi,[ebx-0x104]
 8048bac:	e8 f7 fb ff ff       	call   80487a8 <_init>
 8048bb1:	8d 83 f4 fe ff ff    	lea    eax,[ebx-0x10c]
 8048bb7:	29 c6                	sub    esi,eax
 8048bb9:	c1 fe 02             	sar    esi,0x2
 8048bbc:	85 f6                	test   esi,esi
 8048bbe:	74 25                	je     8048be5 <__libc_csu_init+0x55>
 8048bc0:	31 ff                	xor    edi,edi
 8048bc2:	8d b6 00 00 00 00    	lea    esi,[esi+0x0]
 8048bc8:	83 ec 04             	sub    esp,0x4
 8048bcb:	ff 74 24 2c          	push   DWORD PTR [esp+0x2c]
 8048bcf:	ff 74 24 2c          	push   DWORD PTR [esp+0x2c]
 8048bd3:	55                   	push   ebp
 8048bd4:	ff 94 bb f4 fe ff ff 	call   DWORD PTR [ebx+edi*4-0x10c]
 8048bdb:	83 c7 01             	add    edi,0x1
 8048bde:	83 c4 10             	add    esp,0x10
 8048be1:	39 f7                	cmp    edi,esi
 8048be3:	75 e3                	jne    8048bc8 <__libc_csu_init+0x38>
 8048be5:	83 c4 0c             	add    esp,0xc
 8048be8:	5b                   	pop    ebx
 8048be9:	5e                   	pop    esi
 8048bea:	5f                   	pop    edi
 8048beb:	5d                   	pop    ebp
 8048bec:	c3                   	ret    
 8048bed:	8d 76 00             	lea    esi,[esi+0x0]

08048bf0 <__libc_csu_fini>:
 8048bf0:	f3 c3                	repz ret 

Disassembly of section .fini:

08048bf4 <_fini>:
 8048bf4:	53                   	push   ebx
 8048bf5:	83 ec 08             	sub    esp,0x8
 8048bf8:	e8 33 fd ff ff       	call   8048930 <__x86.get_pc_thunk.bx>
 8048bfd:	81 c3 03 14 00 00    	add    ebx,0x1403
 8048c03:	83 c4 08             	add    esp,0x8
 8048c06:	5b                   	pop    ebx
 8048c07:	c3                   	ret    
